; Function Attrs: mustprogress uwtable
define void @_ZN2cv8imdecodeERKNS_11_InputArrayEi(ptr dead_on_unwind noalias writable sret(%"class.cv::Mat") align 8 %0, ptr noundef nonnull align 8 dereferenceable(24) %1, i32 noundef %2) local_unnamed_addr #4 personality ptr @__gxx_personality_v0 {
  %4 = alloca %"class.cv::utils::trace::details::Region", align 8
  %5 = alloca %"class.cv::Mat", align 8
  call void @llvm.lifetime.start.p0(i64 16, ptr nonnull %4) #30
  call void @_ZN2cv5utils5trace7details6RegionC1ERKNS3_21LocationStaticStorageE(ptr noundef nonnull align 8 dereferenceable(12) %4, ptr noundef nonnull align 8 dereferenceable(32) @_ZZN2cv8imdecodeERKNS_11_InputArrayEiE26__cv_trace_location_fn1129)
  call void @llvm.lifetime.start.p0(i64 96, ptr nonnull %5) #30
  %6 = invoke noundef i32 @_ZNK2cv11_InputArray4kindEv(ptr noundef nonnull align 8 dereferenceable(24) %1)
          to label %.noexc unwind label %15

.noexc:                                           ; preds = %3
  %7 = icmp eq i32 %6, 65536
  br i1 %7, label %8, label %11

8:                                                ; preds = %.noexc
  %9 = getelementptr inbounds nuw i8, ptr %1, i64 8
  %10 = load ptr, ptr %9, align 8, !tbaa !10, !noalias !173
  invoke void @_ZN2cv3MatC1ERKS0_(ptr noundef nonnull align 8 dereferenceable(96) %5, ptr noundef nonnull align 8 dereferenceable(96) %10)
          to label %_ZNK2cv11_InputArray6getMatEi.exit unwind label %15

11:                                               ; preds = %.noexc
  invoke void @_ZNK2cv11_InputArray7getMat_Ei(ptr dead_on_unwind nonnull writable sret(%"class.cv::Mat") align 8 %5, ptr noundef nonnull align 8 dereferenceable(24) %1, i32 noundef -1)
          to label %_ZNK2cv11_InputArray6getMatEi.exit unwind label %15

_ZNK2cv11_InputArray6getMatEi.exit:               ; preds = %8, %11
  call void @_ZN2cv3MatC1Ev(ptr noundef nonnull align 8 dereferenceable(96) %0) #30
  %12 = invoke fastcc noundef zeroext i1 @_ZN2cvL9imdecode_ERKNS_3MatEiRS0_(ptr noundef nonnull align 8 dereferenceable(96) %5, i32 noundef %2, ptr noundef nonnull align 8 dereferenceable(96) %0)
          to label %13 unwind label %17

13:                                               ; preds = %_ZNK2cv11_InputArray6getMatEi.exit
  br i1 %12, label %19, label %14

14:                                               ; preds = %13
  invoke void @_ZN2cv3Mat7releaseEv(ptr noundef nonnull align 8 dereferenceable(96) %0)
          to label %19 unwind label %17

15:                                               ; preds = %11, %8, %3
  %16 = landingpad { ptr, i32 }
          cleanup
  br label %26

17:                                               ; preds = %14, %_ZNK2cv11_InputArray6getMatEi.exit
  %18 = landingpad { ptr, i32 }
          cleanup
  call void @_ZN2cv3MatD1Ev(ptr noundef nonnull align 8 dereferenceable(96) %0) #30
  call void @_ZN2cv3MatD1Ev(ptr noundef nonnull align 8 dereferenceable(96) %5) #30
  br label %26

19:                                               ; preds = %13, %14
  call void @_ZN2cv3MatD1Ev(ptr noundef nonnull align 8 dereferenceable(96) %5) #30
  call void @llvm.lifetime.end.p0(i64 96, ptr nonnull %5) #30
  %20 = getelementptr inbounds nuw i8, ptr %4, i64 8
  %21 = load i32, ptr %20, align 8, !tbaa !11
  %.not.i = icmp eq i32 %21, 0
  br i1 %.not.i, label %_ZN2cv5utils5trace7details6RegionD2Ev.exit, label %22

22:                                               ; preds = %19
  invoke void @_ZN2cv5utils5trace7details6Region7destroyEv(ptr noundef nonnull align 8 dereferenceable(12) %4)
          to label %_ZN2cv5utils5trace7details6RegionD2Ev.exit unwind label %23

23:                                               ; preds = %22
  %24 = landingpad { ptr, i32 }
          catch ptr null
  %25 = extractvalue { ptr, i32 } %24, 0
  call void @__clang_call_terminate(ptr %25) #31
  unreachable

_ZN2cv5utils5trace7details6RegionD2Ev.exit:       ; preds = %19, %22
  call void @llvm.lifetime.end.p0(i64 16, ptr nonnull %4) #30
  ret void

26:                                               ; preds = %17, %15
  %.pn = phi { ptr, i32 } [ %18, %17 ], [ %16, %15 ]
  call void @llvm.lifetime.end.p0(i64 96, ptr nonnull %5) #30
  call void @_ZN2cv5utils5trace7details6RegionD2Ev(ptr noundef nonnull align 8 dereferenceable(12) %4) #30
  call void @llvm.lifetime.end.p0(i64 16, ptr nonnull %4) #30
  resume { ptr, i32 } %.pn
}